target datalayout = "e-m:e-p270:32:32-p271:32:32-p272:64:64-i64:64-i128:128-f80:128-n8:16:32:64-S128"
target triple = "x86_64-pc-linux-gnu"

%struct.AVRational = type { i32, i32 }

; Function Attrs: nounwind uwtable
define i32 @av_image_check_sar(i32 noundef %0, i32 noundef %1, i64 %2) #0 {
  %4 = alloca i32, align 4
  %5 = alloca %struct.AVRational, align 4
  %6 = alloca i32, align 4
  %7 = alloca i32, align 4
  %8 = alloca i64, align 8
  %9 = alloca i32, align 4
  store i64 %2, ptr %5, align 4
  store i32 %0, ptr %6, align 4, !tbaa !11
  store i32 %1, ptr %7, align 4, !tbaa !11
  call void @llvm.lifetime.start.p0(i64 8, ptr %8) #9
  %10 = getelementptr inbounds nuw %struct.AVRational, ptr %5, i32 0, i32 1
  %11 = load i32, ptr %10, align 4, !tbaa !48
  %12 = icmp sle i32 %11, 0
  br i1 %12, label %17, label %13

13:                                               ; preds = %3
  %14 = getelementptr inbounds nuw %struct.AVRational, ptr %5, i32 0, i32 0
  %15 = load i32, ptr %14, align 4, !tbaa !50
  %16 = icmp slt i32 %15, 0
  br i1 %16, label %17, label %18

17:                                               ; preds = %13, %3
  store i32 -22, ptr %4, align 4
  store i32 1, ptr %9, align 4
  br label %60

18:                                               ; preds = %13
  %19 = getelementptr inbounds nuw %struct.AVRational, ptr %5, i32 0, i32 0
  %20 = load i32, ptr %19, align 4, !tbaa !50
  %21 = icmp ne i32 %20, 0
  br i1 %21, label %22, label %28

22:                                               ; preds = %18
  %23 = getelementptr inbounds nuw %struct.AVRational, ptr %5, i32 0, i32 0
  %24 = load i32, ptr %23, align 4, !tbaa !50
  %25 = getelementptr inbounds nuw %struct.AVRational, ptr %5, i32 0, i32 1
  %26 = load i32, ptr %25, align 4, !tbaa !48
  %27 = icmp eq i32 %24, %26
  br i1 %27, label %28, label %29

28:                                               ; preds = %22, %18
  store i32 0, ptr %4, align 4
  store i32 1, ptr %9, align 4
  br label %60

29:                                               ; preds = %22
  %30 = getelementptr inbounds nuw %struct.AVRational, ptr %5, i32 0, i32 0
  %31 = load i32, ptr %30, align 4, !tbaa !50
  %32 = getelementptr inbounds nuw %struct.AVRational, ptr %5, i32 0, i32 1
  %33 = load i32, ptr %32, align 4, !tbaa !48
  %34 = icmp slt i32 %31, %33
  br i1 %34, label %35, label %45

35:                                               ; preds = %29
  %36 = load i32, ptr %6, align 4, !tbaa !11
  %37 = zext i32 %36 to i64
  %38 = getelementptr inbounds nuw %struct.AVRational, ptr %5, i32 0, i32 0
  %39 = load i32, ptr %38, align 4, !tbaa !50
  %40 = sext i32 %39 to i64
  %41 = getelementptr inbounds nuw %struct.AVRational, ptr %5, i32 0, i32 1
  %42 = load i32, ptr %41, align 4, !tbaa !48
  %43 = sext i32 %42 to i64
  %44 = call i64 @av_rescale_rnd(i64 noundef %37, i64 noundef %40, i64 noundef %43, i32 noundef 0) #10
  store i64 %44, ptr %8, align 8, !tbaa !28
  br label %55

45:                                               ; preds = %29
  %46 = load i32, ptr %7, align 4, !tbaa !11
  %47 = zext i32 %46 to i64
  %48 = getelementptr inbounds nuw %struct.AVRational, ptr %5, i32 0, i32 1
  %49 = load i32, ptr %48, align 4, !tbaa !48
  %50 = sext i32 %49 to i64
  %51 = getelementptr inbounds nuw %struct.AVRational, ptr %5, i32 0, i32 0
  %52 = load i32, ptr %51, align 4, !tbaa !50
  %53 = sext i32 %52 to i64
  %54 = call i64 @av_rescale_rnd(i64 noundef %47, i64 noundef %50, i64 noundef %53, i32 noundef 0) #10
  store i64 %54, ptr %8, align 8, !tbaa !28
  br label %55

55:                                               ; preds = %45, %35
  %56 = load i64, ptr %8, align 8, !tbaa !28
  %57 = icmp sgt i64 %56, 0
  br i1 %57, label %58, label %59

58:                                               ; preds = %55
  store i32 0, ptr %4, align 4
  store i32 1, ptr %9, align 4
  br label %60

59:                                               ; preds = %55
  store i32 -22, ptr %4, align 4
  store i32 1, ptr %9, align 4
  br label %60

60:                                               ; preds = %59, %58, %28, %17
  call void @llvm.lifetime.end.p0(i64 8, ptr %8) #9
  %61 = load i32, ptr %4, align 4
  ret i32 %61
}