; Function Attrs: mustprogress nofree nosync nounwind willreturn memory(none) uwtable
define range(i32 -22, 1) i32 @av_image_check_sar(i32 noundef %0, i32 noundef %1, i64 %2) local_unnamed_addr #6 {
  %.sroa.0.0.extract.trunc = trunc i64 %2 to i32
  %.sroa.7.0.extract.shift = lshr i64 %2, 32
  %.sroa.7.0.extract.trunc = trunc nuw i64 %.sroa.7.0.extract.shift to i32
  %4 = icmp slt i32 %.sroa.7.0.extract.trunc, 1
  %5 = icmp slt i32 %.sroa.0.0.extract.trunc, 0
  %or.cond = or i1 %5, %4
  br i1 %or.cond, label %19, label %6

6:                                                ; preds = %3
  %.not = icmp eq i32 %.sroa.0.0.extract.trunc, 0
  %7 = icmp eq i32 %.sroa.0.0.extract.trunc, %.sroa.7.0.extract.trunc
  %or.cond16 = or i1 %.not, %7
  br i1 %or.cond16, label %19, label %8

8:                                                ; preds = %6
  %9 = icmp samesign ult i32 %.sroa.0.0.extract.trunc, %.sroa.7.0.extract.trunc
  %10 = and i64 %2, 2147483647
  br i1 %9, label %11, label %14

11:                                               ; preds = %8
  %12 = zext i32 %0 to i64
  %13 = tail call i64 @av_rescale_rnd(i64 noundef %12, i64 noundef %10, i64 noundef %.sroa.7.0.extract.shift, i32 noundef 0) #12
  br label %17

14:                                               ; preds = %8
  %15 = zext i32 %1 to i64
  %16 = tail call i64 @av_rescale_rnd(i64 noundef %15, i64 noundef %.sroa.7.0.extract.shift, i64 noundef %10, i32 noundef 0) #12
  br label %17

17:                                               ; preds = %14, %11
  %.0 = phi i64 [ %13, %11 ], [ %16, %14 ]
  %18 = icmp sgt i64 %.0, 0
  %. = select i1 %18, i32 0, i32 -22
  br label %19

19:                                               ; preds = %17, %6, %3
  %.015 = phi i32 [ -22, %3 ], [ 0, %6 ], [ %., %17 ]
  ret i32 %.015
}